target datalayout = "e-m:e-p270:32:32-p271:32:32-p272:64:64-i64:64-i128:128-f80:128-n8:16:32:64-S128"
target triple = "x86_64-pc-linux-gnu"

%class.Node = type <{ ptr, ptr, ptr, i32, i32, i32, i32, i32, i32, i32, [4 x i8] }>
%class.PhaseValues = type { %class.PhaseTransform, i8, ptr, ptr, [137 x ptr], [137 x ptr], [20 x ptr] }
%class.PhaseTransform = type { ptr, %class.Phase }
%class.Phase = type { i32, ptr }
%class.TypeInt = type { %class.TypeInteger.base, i32, i32 }
%class.TypeInteger.base = type { %class.Type.base, i16 }
%class.Type.base = type <{ ptr, ptr, i32 }>
%class.TypeInteger = type { %class.Type.base, i16, [2 x i8] }
%class.Type_Array = type { ptr, i32, ptr }

@_ZN4Type3TOPE = external global ptr, align 8
@_ZN4Type6BOTTOME = external global ptr, align 8
@_ZN7TypeInt3INTE = external global ptr, align 8
@_ZN7TypeInt4ZEROE = external global ptr, align 8

; Function Attrs: mustprogress nounwind uwtable
define linkonce_odr hidden noundef ptr @_ZNK10Type_Array11fast_lookupEj(ptr noundef nonnull align 8 dereferenceable(24) %0, i32 noundef %1) #1 comdat align 2 {
  %3 = alloca ptr, align 8
  %4 = alloca i32, align 4
  store ptr %0, ptr %3, align 8
  store i32 %1, ptr %4, align 4
  %5 = load ptr, ptr %3, align 8
  %6 = getelementptr inbounds %class.Type_Array, ptr %5, i32 0, i32 2
  %7 = load ptr, ptr %6, align 8
  %8 = load i32, ptr %4, align 4
  %9 = zext i32 %8 to i64
  %10 = getelementptr inbounds ptr, ptr %7, i64 %9
  %11 = load ptr, ptr %10, align 8
  ret ptr %11
}

; Function Attrs: mustprogress nounwind uwtable
define linkonce_odr hidden noundef signext i16 @_Z4MAX2IsET_S0_S0_(i16 noundef signext %0, i16 noundef signext %1) #1 comdat {
  %3 = alloca i16, align 2
  %4 = alloca i16, align 2
  store i16 %0, ptr %3, align 2
  store i16 %1, ptr %4, align 2
  %5 = load i16, ptr %3, align 2
  %6 = sext i16 %5 to i32
  %7 = load i16, ptr %4, align 2
  %8 = sext i16 %7 to i32
  %9 = icmp sgt i32 %6, %8
  br i1 %9, label %10, label %12

10:                                               ; preds = %2
  %11 = load i16, ptr %3, align 2
  br label %14

12:                                               ; preds = %2
  %13 = load i16, ptr %4, align 2
  br label %14

14:                                               ; preds = %12, %10
  %15 = phi i16 [ %11, %10 ], [ %13, %12 ]
  ret i16 %15
}

; Function Attrs: mustprogress nounwind uwtable
define linkonce_odr hidden noundef i32 @_Z4MAX2IiET_S0_S0_(i32 noundef %0, i32 noundef %1) #1 comdat {
  %3 = alloca i32, align 4
  %4 = alloca i32, align 4
  store i32 %0, ptr %3, align 4
  store i32 %1, ptr %4, align 4
  %5 = load i32, ptr %3, align 4
  %6 = load i32, ptr %4, align 4
  %7 = icmp sgt i32 %5, %6
  br i1 %7, label %8, label %10

8:                                                ; preds = %2
  %9 = load i32, ptr %3, align 4
  br label %12

10:                                               ; preds = %2
  %11 = load i32, ptr %4, align 4
  br label %12

12:                                               ; preds = %10, %8
  %13 = phi i32 [ %9, %8 ], [ %11, %10 ]
  ret i32 %13
}

; Function Attrs: mustprogress nounwind uwtable
define linkonce_odr hidden noundef i32 @_Z4MIN2IiET_S0_S0_(i32 noundef %0, i32 noundef %1) #1 comdat {
  %3 = alloca i32, align 4
  %4 = alloca i32, align 4
  store i32 %0, ptr %3, align 4
  store i32 %1, ptr %4, align 4
  %5 = load i32, ptr %3, align 4
  %6 = load i32, ptr %4, align 4
  %7 = icmp slt i32 %5, %6
  br i1 %7, label %8, label %10

8:                                                ; preds = %2
  %9 = load i32, ptr %3, align 4
  br label %12

10:                                               ; preds = %2
  %11 = load i32, ptr %4, align 4
  br label %12

12:                                               ; preds = %10, %8
  %13 = phi i32 [ %9, %8 ], [ %11, %10 ]
  ret i32 %13
}

; Function Attrs: mustprogress nounwind uwtable
define linkonce_odr hidden noundef i32 @_ZNK7TypeInt7get_conEv(ptr noundef nonnull align 8 dereferenceable(32) %0) #1 comdat align 2 {
  %2 = alloca ptr, align 8
  store ptr %0, ptr %2, align 8
  %3 = load ptr, ptr %2, align 8
  %4 = getelementptr inbounds %class.TypeInt, ptr %3, i32 0, i32 1
  %5 = load i32, ptr %4, align 8
  ret i32 %5
}

; Function Attrs: mustprogress nounwind uwtable
define linkonce_odr hidden noundef zeroext i1 @_ZNK7TypeInt6is_conEv(ptr noundef nonnull align 8 dereferenceable(32) %0) #1 comdat align 2 {
  %2 = alloca ptr, align 8
  store ptr %0, ptr %2, align 8
  %3 = load ptr, ptr %2, align 8
  %4 = getelementptr inbounds %class.TypeInt, ptr %3, i32 0, i32 1
  %5 = load i32, ptr %4, align 8
  %6 = getelementptr inbounds %class.TypeInt, ptr %3, i32 0, i32 2
  %7 = load i32, ptr %6, align 4
  %8 = icmp eq i32 %5, %7
  ret i1 %8
}

; Function Attrs: mustprogress nounwind uwtable
define linkonce_odr hidden noundef ptr @_ZNK4Type6is_intEv(ptr noundef nonnull align 8 dereferenceable(20) %0) #1 comdat align 2 {
  %2 = alloca ptr, align 8
  store ptr %0, ptr %2, align 8
  %3 = load ptr, ptr %2, align 8
  ret ptr %3
}

; Function Attrs: mustprogress nounwind uwtable
define linkonce_odr hidden noundef ptr @_ZNK11PhaseValues4typeEPK4Node(ptr noundef nonnull align 8 dereferenceable(2400) %0, ptr noundef %1) #1 comdat align 2 {
  %3 = alloca ptr, align 8
  %4 = alloca ptr, align 8
  %5 = alloca ptr, align 8
  store ptr %0, ptr %3, align 8
  store ptr %1, ptr %4, align 8
  %6 = load ptr, ptr %3, align 8
  %7 = getelementptr inbounds %class.PhaseValues, ptr %6, i32 0, i32 3
  %8 = load ptr, ptr %7, align 8
  %9 = load ptr, ptr %4, align 8
  %10 = getelementptr inbounds %class.Node, ptr %9, i32 0, i32 7
  %11 = load i32, ptr %10, align 8
  %12 = call noundef ptr @_ZNK10Type_Array11fast_lookupEj(ptr noundef nonnull align 8 dereferenceable(24) %8, i32 noundef %11)
  store ptr %12, ptr %5, align 8
  %13 = load ptr, ptr %5, align 8
  ret ptr %13
}

; Function Attrs: mustprogress nounwind uwtable
define linkonce_odr hidden noundef ptr @_ZNK4Node2inEj(ptr noundef nonnull align 8 dereferenceable(52) %0, i32 noundef %1) #1 comdat align 2 {
  %3 = alloca ptr, align 8
  %4 = alloca i32, align 4
  store ptr %0, ptr %3, align 8
  store i32 %1, ptr %4, align 4
  %5 = load ptr, ptr %3, align 8
  %6 = getelementptr inbounds %class.Node, ptr %5, i32 0, i32 1
  %7 = load ptr, ptr %6, align 8
  %8 = load i32, ptr %4, align 4
  %9 = zext i32 %8 to i64
  %10 = getelementptr inbounds ptr, ptr %7, i64 %9
  %11 = load ptr, ptr %10, align 8
  ret ptr %11
}

; Function Attrs: mustprogress nounwind uwtable
define hidden noundef ptr @_ZNK12URShiftINode5ValueEP8PhaseGVN(ptr noundef nonnull align 8 dereferenceable(52) %0, ptr noundef %1) unnamed_addr #1 align 2 {
  %3 = alloca ptr, align 8
  %4 = alloca ptr, align 8
  %5 = alloca ptr, align 8
  %6 = alloca ptr, align 8
  %7 = alloca ptr, align 8
  %8 = alloca ptr, align 8
  %9 = alloca ptr, align 8
  %10 = alloca i32, align 4
  %11 = alloca i32, align 4
  %12 = alloca i32, align 4
  %13 = alloca i32, align 4
  %14 = alloca i32, align 4
  %15 = alloca i32, align 4
  %16 = alloca i32, align 4
  %17 = alloca ptr, align 8
  store ptr %0, ptr %4, align 8
  store ptr %1, ptr %5, align 8
  %18 = load ptr, ptr %4, align 8
  %19 = load ptr, ptr %5, align 8
  %20 = call noundef ptr @_ZNK4Node2inEj(ptr noundef nonnull align 8 dereferenceable(52) %18, i32 noundef 1)
  %21 = call noundef ptr @_ZNK11PhaseValues4typeEPK4Node(ptr noundef nonnull align 8 dereferenceable(2400) %19, ptr noundef %20)
  store ptr %21, ptr %6, align 8
  %22 = load ptr, ptr %5, align 8
  %23 = call noundef ptr @_ZNK4Node2inEj(ptr noundef nonnull align 8 dereferenceable(52) %18, i32 noundef 2)
  %24 = call noundef ptr @_ZNK11PhaseValues4typeEPK4Node(ptr noundef nonnull align 8 dereferenceable(2400) %22, ptr noundef %23)
  store ptr %24, ptr %7, align 8
  %25 = load ptr, ptr %6, align 8
  %26 = load ptr, ptr @_ZN4Type3TOPE, align 8
  %27 = icmp eq ptr %25, %26
  br i1 %27, label %28, label %30

28:                                               ; preds = %2
  %29 = load ptr, ptr @_ZN4Type3TOPE, align 8
  store ptr %29, ptr %3, align 8
  br label %128

30:                                               ; preds = %2
  %31 = load ptr, ptr %7, align 8
  %32 = load ptr, ptr @_ZN4Type3TOPE, align 8
  %33 = icmp eq ptr %31, %32
  br i1 %33, label %34, label %36

34:                                               ; preds = %30
  %35 = load ptr, ptr @_ZN4Type3TOPE, align 8
  store ptr %35, ptr %3, align 8
  br label %128

36:                                               ; preds = %30
  %37 = load ptr, ptr %6, align 8
  %38 = load ptr, ptr @_ZN7TypeInt4ZEROE, align 8
  %39 = icmp eq ptr %37, %38
  br i1 %39, label %40, label %42

40:                                               ; preds = %36
  %41 = load ptr, ptr @_ZN7TypeInt4ZEROE, align 8
  store ptr %41, ptr %3, align 8
  br label %128

42:                                               ; preds = %36
  %43 = load ptr, ptr %7, align 8
  %44 = load ptr, ptr @_ZN7TypeInt4ZEROE, align 8
  %45 = icmp eq ptr %43, %44
  br i1 %45, label %46, label %48

46:                                               ; preds = %42
  %47 = load ptr, ptr %6, align 8
  store ptr %47, ptr %3, align 8
  br label %128

48:                                               ; preds = %42
  %49 = load ptr, ptr %6, align 8
  %50 = load ptr, ptr @_ZN4Type6BOTTOME, align 8
  %51 = icmp eq ptr %49, %50
  br i1 %51, label %56, label %52

52:                                               ; preds = %48
  %53 = load ptr, ptr %7, align 8
  %54 = load ptr, ptr @_ZN4Type6BOTTOME, align 8
  %55 = icmp eq ptr %53, %54
  br i1 %55, label %56, label %58

56:                                               ; preds = %52, %48
  %57 = load ptr, ptr @_ZN7TypeInt3INTE, align 8
  store ptr %57, ptr %3, align 8
  br label %128

58:                                               ; preds = %52
  %59 = load ptr, ptr %7, align 8
  %60 = load ptr, ptr @_ZN7TypeInt3INTE, align 8
  %61 = icmp eq ptr %59, %60
  br i1 %61, label %62, label %64

62:                                               ; preds = %58
  %63 = load ptr, ptr @_ZN7TypeInt3INTE, align 8
  store ptr %63, ptr %3, align 8
  br label %128

64:                                               ; preds = %58
  %65 = load ptr, ptr %6, align 8
  %66 = call noundef ptr @_ZNK4Type6is_intEv(ptr noundef nonnull align 8 dereferenceable(20) %65)
  store ptr %66, ptr %8, align 8
  %67 = load ptr, ptr %7, align 8
  %68 = call noundef ptr @_ZNK4Type6is_intEv(ptr noundef nonnull align 8 dereferenceable(20) %67)
  store ptr %68, ptr %9, align 8
  %69 = load ptr, ptr %9, align 8
  %70 = call noundef zeroext i1 @_ZNK7TypeInt6is_conEv(ptr noundef nonnull align 8 dereferenceable(32) %69)
  br i1 %70, label %71, label %126

71:                                               ; preds = %64
  %72 = load ptr, ptr %9, align 8
  %73 = call noundef i32 @_ZNK7TypeInt7get_conEv(ptr noundef nonnull align 8 dereferenceable(32) %72)
  store i32 %73, ptr %10, align 4
  %74 = load i32, ptr %10, align 4
  %75 = and i32 %74, 31
  store i32 %75, ptr %10, align 4
  %76 = load i32, ptr %10, align 4
  %77 = icmp eq i32 %76, 0
  br i1 %77, label %78, label %80

78:                                               ; preds = %71
  %79 = load ptr, ptr %6, align 8
  store ptr %79, ptr %3, align 8
  br label %128

80:                                               ; preds = %71
  %81 = load ptr, ptr %8, align 8
  %82 = getelementptr inbounds %class.TypeInt, ptr %81, i32 0, i32 1
  %83 = load i32, ptr %82, align 8
  %84 = load i32, ptr %10, align 4
  %85 = lshr i32 %83, %84
  store i32 %85, ptr %11, align 4
  %86 = load ptr, ptr %8, align 8
  %87 = getelementptr inbounds %class.TypeInt, ptr %86, i32 0, i32 2
  %88 = load i32, ptr %87, align 4
  %89 = load i32, ptr %10, align 4
  %90 = lshr i32 %88, %89
  store i32 %90, ptr %12, align 4
  %91 = load ptr, ptr %8, align 8
  %92 = getelementptr inbounds %class.TypeInt, ptr %91, i32 0, i32 2
  %93 = load i32, ptr %92, align 4
  %94 = icmp sge i32 %93, 0
  br i1 %94, label %95, label %113

95:                                               ; preds = %80
  %96 = load ptr, ptr %8, align 8
  %97 = getelementptr inbounds %class.TypeInt, ptr %96, i32 0, i32 1
  %98 = load i32, ptr %97, align 8
  %99 = icmp slt i32 %98, 0
  br i1 %99, label %100, label %113

100:                                              ; preds = %95
  %101 = load i32, ptr %11, align 4
  store i32 %101, ptr %13, align 4
  %102 = load i32, ptr %10, align 4
  %103 = lshr i32 -1, %102
  store i32 %103, ptr %14, align 4
  %104 = load i32, ptr %10, align 4
  %105 = lshr i32 0, %104
  store i32 %105, ptr %15, align 4
  %106 = load i32, ptr %12, align 4
  store i32 %106, ptr %16, align 4
  %107 = load i32, ptr %13, align 4
  %108 = load i32, ptr %15, align 4
  %109 = call noundef i32 @_Z4MIN2IiET_S0_S0_(i32 noundef %107, i32 noundef %108)
  store i32 %109, ptr %11, align 4
  %110 = load i32, ptr %14, align 4
  %111 = load i32, ptr %16, align 4
  %112 = call noundef i32 @_Z4MAX2IiET_S0_S0_(i32 noundef %110, i32 noundef %111)
  store i32 %112, ptr %12, align 4
  br label %113

113:                                              ; preds = %100, %95, %80
  %114 = load i32, ptr %11, align 4
  %115 = load i32, ptr %12, align 4
  %116 = load ptr, ptr %8, align 8
  %117 = getelementptr inbounds %class.TypeInteger, ptr %116, i32 0, i32 1
  %118 = load i16, ptr %117, align 4
  %119 = load ptr, ptr %9, align 8
  %120 = getelementptr inbounds %class.TypeInteger, ptr %119, i32 0, i32 1
  %121 = load i16, ptr %120, align 4
  %122 = call noundef signext i16 @_Z4MAX2IsET_S0_S0_(i16 noundef signext %118, i16 noundef signext %121)
  %123 = sext i16 %122 to i32
  %124 = call noundef ptr @_ZN7TypeInt4makeEiii(i32 noundef %114, i32 noundef %115, i32 noundef %123)
  store ptr %124, ptr %17, align 8
  %125 = load ptr, ptr %17, align 8
  store ptr %125, ptr %3, align 8
  br label %128

126:                                              ; preds = %64
  %127 = load ptr, ptr @_ZN7TypeInt3INTE, align 8
  store ptr %127, ptr %3, align 8
  br label %128

128:                                              ; preds = %126, %113, %78, %62, %56, %46, %40, %34, %28
  %129 = load ptr, ptr %3, align 8
  ret ptr %129
}