; Function Attrs: mustprogress nounwind uwtable
define hidden noundef ptr @_ZNK12URShiftINode5ValueEP8PhaseGVN(ptr nocapture noundef nonnull readonly align 8 dereferenceable(52) %0, ptr nocapture noundef readonly %1) unnamed_addr #0 align 2 {
  %3 = getelementptr inbounds i8, ptr %0, i64 8
  %4 = load ptr, ptr %3, align 8
  %5 = getelementptr inbounds i8, ptr %4, i64 8
  %6 = load ptr, ptr %5, align 8
  %7 = getelementptr inbounds i8, ptr %1, i64 40
  %8 = load ptr, ptr %7, align 8
  %9 = getelementptr inbounds i8, ptr %6, i64 40
  %10 = load i32, ptr %9, align 8
  %11 = getelementptr inbounds i8, ptr %8, i64 16
  %12 = load ptr, ptr %11, align 8
  %13 = zext i32 %10 to i64
  %14 = getelementptr inbounds ptr, ptr %12, i64 %13
  %15 = load ptr, ptr %14, align 8
  %16 = getelementptr inbounds i8, ptr %4, i64 16
  %17 = load ptr, ptr %16, align 8
  %18 = getelementptr inbounds i8, ptr %17, i64 40
  %19 = load i32, ptr %18, align 8
  %20 = zext i32 %19 to i64
  %21 = getelementptr inbounds ptr, ptr %12, i64 %20
  %22 = load ptr, ptr %21, align 8
  %23 = load ptr, ptr @_ZN4Type3TOPE, align 8
  %24 = icmp eq ptr %15, %23
  %25 = icmp eq ptr %22, %23
  %or.cond48 = or i1 %24, %25
  br i1 %or.cond48, label %64, label %26

26:                                               ; preds = %2
  %27 = load ptr, ptr @_ZN7TypeInt4ZEROE, align 8
  %28 = icmp eq ptr %15, %27
  br i1 %28, label %64, label %29

29:                                               ; preds = %26
  %30 = icmp eq ptr %22, %27
  br i1 %30, label %64, label %31

31:                                               ; preds = %29
  %32 = load ptr, ptr @_ZN4Type6BOTTOME, align 8
  %33 = icmp eq ptr %15, %32
  %34 = icmp eq ptr %22, %32
  %or.cond = or i1 %33, %34
  %35 = load ptr, ptr @_ZN7TypeInt3INTE, align 8
  %36 = icmp eq ptr %22, %35
  %or.cond49 = select i1 %or.cond, i1 true, i1 %36
  br i1 %or.cond49, label %64, label %37

37:                                               ; preds = %31
  %38 = getelementptr inbounds i8, ptr %22, i64 24
  %39 = load i32, ptr %38, align 8
  %40 = getelementptr inbounds i8, ptr %22, i64 28
  %41 = load i32, ptr %40, align 4
  %42 = icmp eq i32 %39, %41
  br i1 %42, label %43, label %64

43:                                               ; preds = %37
  %44 = and i32 %39, 31
  %45 = icmp eq i32 %44, 0
  br i1 %45, label %64, label %46

46:                                               ; preds = %43
  %47 = getelementptr inbounds i8, ptr %15, i64 24
  %48 = load i32, ptr %47, align 8
  %49 = lshr i32 %48, %44
  %50 = getelementptr inbounds i8, ptr %15, i64 28
  %51 = load i32, ptr %50, align 4
  %52 = lshr i32 %51, %44
  %53 = icmp sgt i32 %51, -1
  %54 = icmp slt i32 %48, 0
  %or.cond47 = select i1 %53, i1 %54, i1 false
  %55 = lshr i32 -1, %44
  %56 = tail call i32 @llvm.umax.i32(i32 %55, i32 %52)
  %.038 = select i1 %or.cond47, i32 %56, i32 %52
  %.037 = select i1 %or.cond47, i32 0, i32 %49
  %57 = getelementptr inbounds i8, ptr %15, i64 20
  %58 = load i16, ptr %57, align 4
  %59 = getelementptr inbounds i8, ptr %22, i64 20
  %60 = load i16, ptr %59, align 4
  %61 = tail call noundef i16 @llvm.smax.i16(i16 %58, i16 %60)
  %62 = sext i16 %61 to i32
  %63 = tail call noundef ptr @_ZN7TypeInt4makeEiii(i32 noundef %.037, i32 noundef %.038, i32 noundef %62) #10
  br label %64

64:                                               ; preds = %31, %37, %43, %29, %26, %2, %46
  %.0 = phi ptr [ %63, %46 ], [ %23, %2 ], [ %27, %26 ], [ %15, %29 ], [ %15, %43 ], [ %35, %37 ], [ %35, %31 ]
  ret ptr %.0
}